; Function Attrs: mustprogress uwtable
define { ptr, i32 } @_ZNK11StringTable2atEl(ptr noundef nonnull readonly align 8 captures(none) dereferenceable(24) %0, i64 noundef %1) local_unnamed_addr #0 align 2 personality ptr @__gxx_personality_v0 {
  %3 = alloca %"class.gmx::InternalError", align 8
  %4 = alloca %"class.gmx::ExceptionInitializer", align 8
  %5 = alloca %"class.gmx::ExceptionInfo", align 8
  %6 = getelementptr inbounds nuw i8, ptr %0, i64 8
  %7 = load ptr, ptr %6, align 8, !tbaa !81
  %8 = load ptr, ptr %0, align 8, !tbaa !76
  %9 = ptrtoint ptr %7 to i64
  %10 = ptrtoint ptr %8 to i64
  %11 = sub i64 %9, %10
  %12 = ashr exact i64 %11, 5
  %.not = icmp slt i64 %1, %12
  br i1 %.not, label %24, label %13

13:                                               ; preds = %2
  %14 = tail call ptr @__cxa_allocate_exception(i64 24) #25
  call void @llvm.lifetime.start.p0(i64 56, ptr nonnull %4) #25
  invoke void @_ZN3gmx20ExceptionInitializerC2EPKc(ptr noundef nonnull align 8 dereferenceable(56) %4, ptr noundef nonnull @.str.9)
          to label %15 unwind label %.thread

15:                                               ; preds = %13
  invoke void @_ZN3gmx16GromacsExceptionC2ERKNS_20ExceptionInitializerE(ptr noundef nonnull align 8 dereferenceable(24) %3, ptr noundef nonnull align 8 dereferenceable(56) %4)
          to label %16 unwind label %.thread19

16:                                               ; preds = %15
  store ptr getelementptr inbounds nuw inrange(-16, 32) (i8, ptr @_ZTVN3gmx13InternalErrorE, i64 16), ptr %3, align 8, !tbaa !49
  call void @llvm.lifetime.start.p0(i64 32, ptr nonnull %5) #25
  store ptr getelementptr inbounds nuw inrange(-16, 16) (i8, ptr @_ZTVN3gmx13ExceptionInfoINS_22ExceptionInfoLocation_ENS_13ThrowLocationEEE, i64 16), ptr %5, align 8, !tbaa !49
  %17 = getelementptr inbounds nuw i8, ptr %5, i64 8
  store ptr @__PRETTY_FUNCTION__._ZNK11StringTable2atEl, ptr %17, align 8, !tbaa !51
  %.sroa.4.0..sroa_idx = getelementptr inbounds nuw i8, ptr %5, i64 16
  store ptr @.str.1, ptr %.sroa.4.0..sroa_idx, align 8, !tbaa !51
  %.sroa.5.0..sroa_idx = getelementptr inbounds nuw i8, ptr %5, i64 24
  store i32 139, ptr %.sroa.5.0..sroa_idx, align 8, !tbaa !34
  invoke void @_ZN3gmxlsINS_13InternalErrorENS_22ExceptionInfoLocation_ENS_13ThrowLocationEEENSt9enable_ifIXsr3stdE12is_base_of_vINS_16GromacsExceptionET_EES6_E4typeES6_RKNS_13ExceptionInfoIT0_T1_EE(ptr dead_on_unwind writable sret(%"class.gmx::InternalError") align 8 %14, ptr noundef nonnull %3, ptr noundef nonnull align 8 dereferenceable(32) %5)
          to label %18 unwind label %21

18:                                               ; preds = %16
  invoke void @__cxa_throw(ptr %14, ptr nonnull @_ZTIN3gmx13InternalErrorE, ptr nonnull @_ZN3gmx16GromacsExceptionD2Ev) #29
          to label %28 unwind label %21

.thread:                                          ; preds = %13
  %19 = landingpad { ptr, i32 }
          cleanup
  br label %.sink.split

.thread19:                                        ; preds = %15
  %20 = landingpad { ptr, i32 }
          cleanup
  call void @_ZN3gmx20ExceptionInitializerD2Ev(ptr noundef nonnull align 8 dereferenceable(56) %4) #25
  br label %.sink.split

21:                                               ; preds = %16, %18
  %.0 = phi i1 [ false, %18 ], [ true, %16 ]
  %22 = landingpad { ptr, i32 }
          cleanup
  call void @_ZN3gmx8internal14IExceptionInfoD2Ev(ptr noundef nonnull align 8 dereferenceable(32) %5) #25
  call void @llvm.lifetime.end.p0(i64 32, ptr nonnull %5) #25
  call void @_ZN3gmx16GromacsExceptionD2Ev(ptr noundef nonnull align 8 dereferenceable(24) %3) #25
  call void @_ZN3gmx20ExceptionInitializerD2Ev(ptr noundef nonnull align 8 dereferenceable(56) %4) #25
  call void @llvm.lifetime.end.p0(i64 56, ptr nonnull %4) #25
  br i1 %.0, label %23, label %27

.sink.split:                                      ; preds = %.thread, %.thread19
  %.pn.pn18.ph = phi { ptr, i32 } [ %20, %.thread19 ], [ %19, %.thread ]
  call void @llvm.lifetime.end.p0(i64 56, ptr nonnull %4) #25
  br label %23

23:                                               ; preds = %.sink.split, %21
  %.pn.pn18 = phi { ptr, i32 } [ %22, %21 ], [ %.pn.pn18.ph, %.sink.split ]
  call void @__cxa_free_exception(ptr %14) #25
  br label %27

24:                                               ; preds = %2
  %25 = getelementptr inbounds nuw %"class.std::__cxx11::basic_string", ptr %8, i64 %1
  %26 = trunc i64 %1 to i32
  %.fca.0.insert = insertvalue { ptr, i32 } poison, ptr %25, 0
  %.fca.1.insert = insertvalue { ptr, i32 } %.fca.0.insert, i32 %26, 1
  ret { ptr, i32 } %.fca.1.insert

27:                                               ; preds = %21, %23
  %.pn.pn17 = phi { ptr, i32 } [ %22, %21 ], [ %.pn.pn18, %23 ]
  resume { ptr, i32 } %.pn.pn17

28:                                               ; preds = %18
  unreachable
}